target datalayout = "e-m:e-p270:32:32-p271:32:32-p272:64:64-i64:64-i128:128-f80:128-n8:16:32:64-S128"
target triple = "x86_64-pc-linux-gnu"

%struct.stat = type { i64, i64, i64, i32, i32, i32, i32, i64, i64, i64, i64, %struct.timespec, %struct.timespec, %struct.timespec, [3 x i64] }
%struct.timespec = type { i64, i64 }

; Function Attrs: nounwind uwtable
define internal i32 @UTIL_getFileStat(ptr noundef %0, ptr noundef %1) #0 {
  %3 = alloca i32, align 4
  %4 = alloca ptr, align 8
  %5 = alloca ptr, align 8
  %6 = alloca i32, align 4
  %7 = alloca i32, align 4
  store ptr %0, ptr %4, align 8, !tbaa !31
  store ptr %1, ptr %5, align 8, !tbaa !115
  call void @llvm.lifetime.start.p0(i64 4, ptr %6) #13
  %8 = load ptr, ptr %4, align 8, !tbaa !31
  %9 = load ptr, ptr %5, align 8, !tbaa !115
  %10 = call i32 @stat(ptr noundef %8, ptr noundef %9) #13
  store i32 %10, ptr %6, align 4, !tbaa !9
  %11 = load i32, ptr %6, align 4, !tbaa !9
  %12 = icmp ne i32 %11, 0
  br i1 %12, label %19, label %13

13:                                               ; preds = %2
  %14 = load ptr, ptr %5, align 8, !tbaa !115
  %15 = getelementptr inbounds nuw %struct.stat, ptr %14, i32 0, i32 3
  %16 = load i32, ptr %15, align 8, !tbaa !104
  %17 = and i32 %16, 61440
  %18 = icmp eq i32 %17, 32768
  br i1 %18, label %20, label %19

19:                                               ; preds = %13, %2
  store i32 0, ptr %3, align 4
  store i32 1, ptr %7, align 4
  br label %21

20:                                               ; preds = %13
  store i32 1, ptr %3, align 4
  store i32 1, ptr %7, align 4
  br label %21

21:                                               ; preds = %20, %19
  call void @llvm.lifetime.end.p0(i64 4, ptr %6) #13
  %22 = load i32, ptr %3, align 4
  ret i32 %22
}

; Function Attrs: nounwind uwtable
define internal i32 @UTIL_isRegFile(ptr noundef %0) #0 {
  %2 = alloca ptr, align 8
  %3 = alloca %struct.stat, align 8
  store ptr %0, ptr %2, align 8, !tbaa !31
  call void @llvm.lifetime.start.p0(i64 144, ptr %3) #13
  %4 = load ptr, ptr %2, align 8, !tbaa !31
  %5 = call i32 @UTIL_getFileStat(ptr noundef %4, ptr noundef %3)
  call void @llvm.lifetime.end.p0(i64 144, ptr %3) #13
  ret i32 %5
}

; Function Attrs: nounwind uwtable
define internal i32 @UTIL_setFileStat(ptr noundef %0, ptr noundef %1) #0 {
  %3 = alloca i32, align 4
  %4 = alloca ptr, align 8
  %5 = alloca ptr, align 8
  %6 = alloca i32, align 4
  %7 = alloca i32, align 4
  %8 = alloca [2 x %struct.timespec], align 16
  store ptr %0, ptr %4, align 8, !tbaa !31
  store ptr %1, ptr %5, align 8, !tbaa !115
  call void @llvm.lifetime.start.p0(i64 4, ptr %6) #13
  store i32 0, ptr %6, align 4, !tbaa !9
  %9 = load ptr, ptr %4, align 8, !tbaa !31
  %10 = call i32 @UTIL_isRegFile(ptr noundef %9)
  %11 = icmp ne i32 %10, 0
  br i1 %11, label %13, label %12

12:                                               ; preds = %2
  store i32 -1, ptr %3, align 4
  store i32 1, ptr %7, align 4
  br label %49

13:                                               ; preds = %2
  call void @llvm.lifetime.start.p0(i64 32, ptr %8) #13
  %14 = getelementptr inbounds [2 x %struct.timespec], ptr %8, i64 0, i64 0
  call void @llvm.memset.p0.i64(ptr align 16 %14, i8 0, i64 32, i1 false)
  %15 = getelementptr inbounds [2 x %struct.timespec], ptr %8, i64 0, i64 0
  %16 = getelementptr inbounds nuw %struct.timespec, ptr %15, i32 0, i32 1
  store i64 1073741823, ptr %16, align 8, !tbaa !117
  %17 = load ptr, ptr %5, align 8, !tbaa !115
  %18 = getelementptr inbounds nuw %struct.stat, ptr %17, i32 0, i32 12
  %19 = getelementptr inbounds nuw %struct.timespec, ptr %18, i32 0, i32 0
  %20 = load i64, ptr %19, align 8, !tbaa !118
  %21 = getelementptr inbounds [2 x %struct.timespec], ptr %8, i64 0, i64 1
  %22 = getelementptr inbounds nuw %struct.timespec, ptr %21, i32 0, i32 0
  store i64 %20, ptr %22, align 16, !tbaa !119
  %23 = load ptr, ptr %4, align 8, !tbaa !31
  %24 = getelementptr inbounds [2 x %struct.timespec], ptr %8, i64 0, i64 0
  %25 = call i32 @utimensat(i32 noundef -100, ptr noundef %23, ptr noundef %24, i32 noundef 0) #13
  %26 = load i32, ptr %6, align 4, !tbaa !9
  %27 = add nsw i32 %26, %25
  store i32 %27, ptr %6, align 4, !tbaa !9
  call void @llvm.lifetime.end.p0(i64 32, ptr %8) #13
  %28 = load ptr, ptr %4, align 8, !tbaa !31
  %29 = load ptr, ptr %5, align 8, !tbaa !115
  %30 = getelementptr inbounds nuw %struct.stat, ptr %29, i32 0, i32 4
  %31 = load i32, ptr %30, align 4, !tbaa !120
  %32 = load ptr, ptr %5, align 8, !tbaa !115
  %33 = getelementptr inbounds nuw %struct.stat, ptr %32, i32 0, i32 5
  %34 = load i32, ptr %33, align 8, !tbaa !121
  %35 = call i32 @chown(ptr noundef %28, i32 noundef %31, i32 noundef %34) #13
  %36 = load i32, ptr %6, align 4, !tbaa !9
  %37 = add nsw i32 %36, %35
  store i32 %37, ptr %6, align 4, !tbaa !9
  %38 = load ptr, ptr %4, align 8, !tbaa !31
  %39 = load ptr, ptr %5, align 8, !tbaa !115
  %40 = getelementptr inbounds nuw %struct.stat, ptr %39, i32 0, i32 3
  %41 = load i32, ptr %40, align 8, !tbaa !104
  %42 = and i32 %41, 4095
  %43 = call i32 @chmod(ptr noundef %38, i32 noundef %42) #13
  %44 = load i32, ptr %6, align 4, !tbaa !9
  %45 = add nsw i32 %44, %43
  store i32 %45, ptr %6, align 4, !tbaa !9
  %46 = call ptr @__errno_location() #17
  store i32 0, ptr %46, align 4, !tbaa !9
  %47 = load i32, ptr %6, align 4, !tbaa !9
  %48 = sub nsw i32 0, %47
  store i32 %48, ptr %3, align 4
  store i32 1, ptr %7, align 4
  br label %49

49:                                               ; preds = %13, %12
  call void @llvm.lifetime.end.p0(i64 4, ptr %6) #13
  %50 = load i32, ptr %3, align 4
  ret i32 %50
}