; Function Attrs: nounwind uwtable
define internal fastcc void @UTIL_setFileStat(ptr noundef %0, ptr noundef nonnull readonly captures(none) %1) unnamed_addr #11 {
  %3 = alloca %struct.stat, align 8
  %4 = alloca [2 x %struct.timespec], align 16
  call void @llvm.lifetime.start.p0(i64 144, ptr nonnull %3) #24
  %5 = call i32 @stat(ptr noundef readonly %0, ptr noundef nonnull %3) #24
  %.not.i.i = icmp ne i32 %5, 0
  %6 = getelementptr inbounds nuw i8, ptr %3, i64 24
  %7 = load i32, ptr %6, align 8
  %8 = and i32 %7, 61440
  %9 = icmp ne i32 %8, 32768
  %narrow.i.not = select i1 %.not.i.i, i1 true, i1 %9
  call void @llvm.lifetime.end.p0(i64 144, ptr nonnull %3) #24
  br i1 %narrow.i.not, label %26, label %10

10:                                               ; preds = %2
  call void @llvm.lifetime.start.p0(i64 32, ptr nonnull %4) #24
  call void @llvm.memset.p0.i64(ptr noundef nonnull align 16 dereferenceable(32) %4, i8 0, i64 32, i1 false)
  %11 = getelementptr inbounds nuw i8, ptr %4, i64 8
  store i64 1073741823, ptr %11, align 8, !tbaa !109
  %12 = getelementptr inbounds nuw i8, ptr %1, i64 88
  %13 = load i64, ptr %12, align 8, !tbaa !110
  %14 = getelementptr inbounds nuw i8, ptr %4, i64 16
  store i64 %13, ptr %14, align 16, !tbaa !111
  %15 = call i32 @utimensat(i32 noundef -100, ptr noundef %0, ptr noundef nonnull %4, i32 noundef 0) #24
  call void @llvm.lifetime.end.p0(i64 32, ptr nonnull %4) #24
  %16 = getelementptr inbounds nuw i8, ptr %1, i64 28
  %17 = load i32, ptr %16, align 4, !tbaa !112
  %18 = getelementptr inbounds nuw i8, ptr %1, i64 32
  %19 = load i32, ptr %18, align 8, !tbaa !113
  %20 = call i32 @chown(ptr noundef %0, i32 noundef %17, i32 noundef %19) #24
  %21 = getelementptr inbounds nuw i8, ptr %1, i64 24
  %22 = load i32, ptr %21, align 8, !tbaa !71
  %23 = and i32 %22, 4095
  %24 = call i32 @chmod(ptr noundef %0, i32 noundef %23) #24
  %25 = tail call ptr @__errno_location() #31
  store i32 0, ptr %25, align 4, !tbaa !4
  br label %26

26:                                               ; preds = %2, %10
  ret void
}